target datalayout = "e-m:e-p270:32:32-p271:32:32-p272:64:64-i64:64-i128:128-f80:128-n8:16:32:64-S128"
target triple = "x86_64-pc-linux-gnu"

%struct._generic_N_Vector = type { ptr, ptr, ptr }
%struct._N_VectorContent_Serial = type { i64, i32, ptr }

@stdout = external global ptr, align 8
@.str = private unnamed_addr constant [9 x i8] c"%19.16e\0A\00", align 1
@.str.1 = private unnamed_addr constant [2 x i8] c"\0A\00", align 1

; Function Attrs: nounwind uwtable
define void @N_VPrintFile_Serial(ptr noundef %0, ptr noundef %1) #0 {
  %3 = alloca ptr, align 8
  %4 = alloca ptr, align 8
  %5 = alloca i64, align 8
  %6 = alloca i64, align 8
  %7 = alloca ptr, align 8
  store ptr %0, ptr %3, align 8, !tbaa !10
  store ptr %1, ptr %4, align 8, !tbaa !78
  call void @llvm.lifetime.start.p0(i64 8, ptr %5) #6
  call void @llvm.lifetime.start.p0(i64 8, ptr %6) #6
  call void @llvm.lifetime.start.p0(i64 8, ptr %7) #6
  store ptr null, ptr %7, align 8, !tbaa !69
  %8 = load ptr, ptr %3, align 8, !tbaa !10
  %9 = getelementptr inbounds nuw %struct._generic_N_Vector, ptr %8, i32 0, i32 0
  %10 = load ptr, ptr %9, align 8, !tbaa !61
  %11 = getelementptr inbounds nuw %struct._N_VectorContent_Serial, ptr %10, i32 0, i32 0
  %12 = load i64, ptr %11, align 8, !tbaa !62
  store i64 %12, ptr %6, align 8, !tbaa !3
  %13 = load ptr, ptr %3, align 8, !tbaa !10
  %14 = getelementptr inbounds nuw %struct._generic_N_Vector, ptr %13, i32 0, i32 0
  %15 = load ptr, ptr %14, align 8, !tbaa !61
  %16 = getelementptr inbounds nuw %struct._N_VectorContent_Serial, ptr %15, i32 0, i32 2
  %17 = load ptr, ptr %16, align 8, !tbaa !67
  store ptr %17, ptr %7, align 8, !tbaa !69
  store i64 0, ptr %5, align 8, !tbaa !3
  br label %18

18:                                               ; preds = %29, %2
  %19 = load i64, ptr %5, align 8, !tbaa !3
  %20 = load i64, ptr %6, align 8, !tbaa !3
  %21 = icmp slt i64 %19, %20
  br i1 %21, label %22, label %32

22:                                               ; preds = %18
  %23 = load ptr, ptr %4, align 8, !tbaa !78
  %24 = load ptr, ptr %7, align 8, !tbaa !69
  %25 = load i64, ptr %5, align 8, !tbaa !3
  %26 = getelementptr inbounds double, ptr %24, i64 %25
  %27 = load double, ptr %26, align 8, !tbaa !72
  %28 = call i32 (ptr, ptr, ...) @fprintf(ptr noundef %23, ptr noundef @.str, double noundef %27) #6
  br label %29

29:                                               ; preds = %22
  %30 = load i64, ptr %5, align 8, !tbaa !3
  %31 = add nsw i64 %30, 1
  store i64 %31, ptr %5, align 8, !tbaa !3
  br label %18

32:                                               ; preds = %18
  %33 = load ptr, ptr %4, align 8, !tbaa !78
  %34 = call i32 (ptr, ptr, ...) @fprintf(ptr noundef %33, ptr noundef @.str.1) #6
  call void @llvm.lifetime.end.p0(i64 8, ptr %7) #6
  call void @llvm.lifetime.end.p0(i64 8, ptr %6) #6
  call void @llvm.lifetime.end.p0(i64 8, ptr %5) #6
  ret void
}

; Function Attrs: nounwind uwtable
define void @N_VPrint_Serial(ptr noundef %0) #0 {
  %2 = alloca ptr, align 8
  %3 = alloca ptr, align 8
  store ptr %0, ptr %2, align 8, !tbaa !10
  call void @llvm.lifetime.start.p0(i64 8, ptr %3) #6
  %4 = load ptr, ptr %2, align 8, !tbaa !10
  %5 = getelementptr inbounds nuw %struct._generic_N_Vector, ptr %4, i32 0, i32 2
  %6 = load ptr, ptr %5, align 8, !tbaa !68
  store ptr %6, ptr %3, align 8, !tbaa !7
  %7 = load ptr, ptr %2, align 8, !tbaa !10
  %8 = load ptr, ptr @stdout, align 8, !tbaa !78
  call void @N_VPrintFile_Serial(ptr noundef %7, ptr noundef %8)
  call void @llvm.lifetime.end.p0(i64 8, ptr %3) #6
  ret void
}