; Function Attrs: nofree nounwind uwtable
define void @N_VPrint_Serial(ptr noundef readonly captures(none) %0) #11 {
  %2 = load ptr, ptr @stdout, align 8, !tbaa !69
  %3 = load ptr, ptr %0, align 8, !tbaa !54
  %4 = load i64, ptr %3, align 8, !tbaa !55
  %5 = getelementptr inbounds nuw i8, ptr %3, i64 16
  %6 = load ptr, ptr %5, align 8, !tbaa !61
  %7 = icmp sgt i64 %4, 0
  br i1 %7, label %.lr.ph.i, label %N_VPrintFile_Serial.exit

.lr.ph.i:                                         ; preds = %1, %.lr.ph.i
  %.08.i = phi i64 [ %11, %.lr.ph.i ], [ 0, %1 ]
  %8 = getelementptr inbounds nuw double, ptr %6, i64 %.08.i
  %9 = load double, ptr %8, align 8, !tbaa !64
  %10 = tail call i32 (ptr, ptr, ...) @fprintf(ptr noundef %2, ptr noundef nonnull @.str, double noundef %9) #20
  %11 = add nuw nsw i64 %.08.i, 1
  %exitcond.not.i = icmp eq i64 %11, %4
  br i1 %exitcond.not.i, label %N_VPrintFile_Serial.exit, label %.lr.ph.i

N_VPrintFile_Serial.exit:                         ; preds = %.lr.ph.i, %1
  %fputc.i = tail call i32 @fputc(i32 10, ptr %2)
  ret void
}